target datalayout = "e-m:e-p270:32:32-p271:32:32-p272:64:64-i64:64-i128:128-f80:128-n8:16:32:64-S128"
target triple = "x86_64-pc-linux-gnu"

%struct.EState = type { i32, i32, ptr, ptr, ptr, i32, ptr, ptr, ptr, ptr, ptr, ptr, ptr, ptr, ptr, ptr, i32, ptr, ptr, ptr, ptr, ptr, ptr, ptr, ptr, ptr, ptr, i64, i64, i32, i32, i8, ptr, ptr, ptr, ptr, ptr, i8, i32, i32, ptr, i32, ptr, ptr, ptr, ptr }
%struct.PlanState = type { i32, ptr, ptr, ptr, ptr, ptr, ptr, ptr, ptr, ptr, ptr, ptr, ptr, ptr, ptr, ptr, ptr, ptr, i8, ptr, ptr, ptr, ptr, ptr, i8, i8, i8, i8, i8, i8, i8, i8 }
%struct.FixedParallelExecutorState = type { i64, i64, i32, i32 }
%struct.SharedExecutorInstrumentation = type { i32, i32, i32, i32, [0 x i32] }
%struct.instr_time = type { i64 }
%struct.BufferUsage = type { i64, i64, i64, i64, i64, i64, i64, i64, i64, i64, %struct.instr_time, %struct.instr_time, %struct.instr_time, %struct.instr_time, %struct.instr_time, %struct.instr_time }
%struct.WalUsage = type { i64, i64, i64, i64 }
%struct.SharedJitInstrumentation = type { i32, [0 x %struct.JitInstrumentation] }
%struct.JitInstrumentation = type { i64, %struct.instr_time, %struct.instr_time, %struct.instr_time, %struct.instr_time, %struct.instr_time }
%struct.PlannedStmt = type { i32, i32, i64, i8, i8, i8, i8, i8, i8, i32, ptr, ptr, ptr, ptr, ptr, ptr, ptr, ptr, ptr, ptr, ptr, ptr, ptr, ptr, i32, i32 }
%struct.ParamExecData = type { ptr, i64, i8 }
%struct.ParallelWorkerContext = type { ptr, ptr }
%struct.QueryDesc = type { i32, ptr, ptr, ptr, ptr, ptr, ptr, ptr, i32, ptr, ptr, ptr, i8, ptr }
%struct.JitContext = type { i32, %struct.JitInstrumentation }
%struct._DestReceiver = type { ptr, ptr, ptr, ptr, i32 }

@debug_query_string = external global ptr, align 8
@ParallelWorkerNumber = external global i32, align 4
@MyProc = external global ptr, align 8

; Function Attrs: nounwind uwtable
define internal void @RestoreParamExecParams(ptr noundef %0, ptr noundef %1) #0 {
  %3 = alloca ptr, align 8
  %4 = alloca ptr, align 8
  %5 = alloca i32, align 4
  %6 = alloca i32, align 4
  %7 = alloca i32, align 4
  %8 = alloca ptr, align 8
  store ptr %0, ptr %3, align 8
  store ptr %1, ptr %4, align 8
  call void @llvm.lifetime.start.p0(i64 4, ptr %5) #8
  call void @llvm.lifetime.start.p0(i64 4, ptr %6) #8
  call void @llvm.lifetime.start.p0(i64 4, ptr %7) #8
  %9 = load ptr, ptr %3, align 8
  call void @llvm.memcpy.p0.p0.i64(ptr align 4 %5, ptr align 1 %9, i64 4, i1 false)
  %10 = load ptr, ptr %3, align 8
  %11 = getelementptr inbounds nuw i8, ptr %10, i64 4
  store ptr %11, ptr %3, align 8
  store i32 0, ptr %6, align 4
  br label %12

12:                                               ; preds = %33, %2
  %13 = load i32, ptr %6, align 4
  %14 = load i32, ptr %5, align 4
  %15 = icmp slt i32 %13, %14
  br i1 %15, label %16, label %36

16:                                               ; preds = %12
  call void @llvm.lifetime.start.p0(i64 8, ptr %8) #8
  %17 = load ptr, ptr %3, align 8
  call void @llvm.memcpy.p0.p0.i64(ptr align 4 %7, ptr align 1 %17, i64 4, i1 false)
  %18 = load ptr, ptr %3, align 8
  %19 = getelementptr inbounds nuw i8, ptr %18, i64 4
  store ptr %19, ptr %3, align 8
  %20 = load ptr, ptr %4, align 8
  %21 = getelementptr inbounds nuw %struct.EState, ptr %20, i32 0, i32 23
  %22 = load ptr, ptr %21, align 8
  %23 = load i32, ptr %7, align 4
  %24 = sext i32 %23 to i64
  %25 = getelementptr inbounds %struct.ParamExecData, ptr %22, i64 %24
  store ptr %25, ptr %8, align 8
  %26 = load ptr, ptr %8, align 8
  %27 = getelementptr inbounds nuw %struct.ParamExecData, ptr %26, i32 0, i32 2
  %28 = call i64 @datumRestore(ptr noundef %3, ptr noundef %27)
  %29 = load ptr, ptr %8, align 8
  %30 = getelementptr inbounds nuw %struct.ParamExecData, ptr %29, i32 0, i32 1
  store i64 %28, ptr %30, align 8
  %31 = load ptr, ptr %8, align 8
  %32 = getelementptr inbounds nuw %struct.ParamExecData, ptr %31, i32 0, i32 0
  store ptr null, ptr %32, align 8
  call void @llvm.lifetime.end.p0(i64 8, ptr %8) #8
  br label %33

33:                                               ; preds = %16
  %34 = load i32, ptr %6, align 4
  %35 = add i32 %34, 1
  store i32 %35, ptr %6, align 4
  br label %12, !llvm.loop !19

36:                                               ; preds = %12
  call void @llvm.lifetime.end.p0(i64 4, ptr %7) #8
  call void @llvm.lifetime.end.p0(i64 4, ptr %6) #8
  call void @llvm.lifetime.end.p0(i64 4, ptr %5) #8
  ret void
}

; Function Attrs: nounwind uwtable
define internal ptr @ExecParallelGetQueryDesc(ptr noundef %0, ptr noundef %1, i32 noundef %2) #0 {
  %4 = alloca ptr, align 8
  %5 = alloca ptr, align 8
  %6 = alloca i32, align 4
  %7 = alloca ptr, align 8
  %8 = alloca ptr, align 8
  %9 = alloca ptr, align 8
  %10 = alloca ptr, align 8
  %11 = alloca ptr, align 8
  store ptr %0, ptr %4, align 8
  store ptr %1, ptr %5, align 8
  store i32 %2, ptr %6, align 4
  call void @llvm.lifetime.start.p0(i64 8, ptr %7) #8
  call void @llvm.lifetime.start.p0(i64 8, ptr %8) #8
  call void @llvm.lifetime.start.p0(i64 8, ptr %9) #8
  call void @llvm.lifetime.start.p0(i64 8, ptr %10) #8
  call void @llvm.lifetime.start.p0(i64 8, ptr %11) #8
  %12 = load ptr, ptr %4, align 8
  %13 = call ptr @shm_toc_lookup(ptr noundef %12, i64 noundef -2305843009213693944, i1 noundef zeroext false)
  store ptr %13, ptr %11, align 8
  %14 = load ptr, ptr %4, align 8
  %15 = call ptr @shm_toc_lookup(ptr noundef %14, i64 noundef -2305843009213693950, i1 noundef zeroext false)
  store ptr %15, ptr %7, align 8
  %16 = load ptr, ptr %7, align 8
  %17 = call ptr @stringToNode(ptr noundef %16)
  store ptr %17, ptr %9, align 8
  %18 = load ptr, ptr %4, align 8
  %19 = call ptr @shm_toc_lookup(ptr noundef %18, i64 noundef -2305843009213693949, i1 noundef zeroext false)
  store ptr %19, ptr %8, align 8
  %20 = call ptr @RestoreParamList(ptr noundef %8)
  store ptr %20, ptr %10, align 8
  %21 = load ptr, ptr %9, align 8
  %22 = load ptr, ptr %11, align 8
  %23 = call ptr @GetActiveSnapshot()
  %24 = load ptr, ptr %5, align 8
  %25 = load ptr, ptr %10, align 8
  %26 = load i32, ptr %6, align 4
  %27 = call ptr @CreateQueryDesc(ptr noundef %21, ptr noundef %22, ptr noundef %23, ptr noundef null, ptr noundef %24, ptr noundef %25, ptr noundef null, i32 noundef %26)
  call void @llvm.lifetime.end.p0(i64 8, ptr %11) #8
  call void @llvm.lifetime.end.p0(i64 8, ptr %10) #8
  call void @llvm.lifetime.end.p0(i64 8, ptr %9) #8
  call void @llvm.lifetime.end.p0(i64 8, ptr %8) #8
  call void @llvm.lifetime.end.p0(i64 8, ptr %7) #8
  ret ptr %27
}

; Function Attrs: nounwind uwtable
define internal ptr @ExecParallelGetReceiver(ptr noundef %0, ptr noundef %1) #0 {
  %3 = alloca ptr, align 8
  %4 = alloca ptr, align 8
  %5 = alloca ptr, align 8
  %6 = alloca ptr, align 8
  store ptr %0, ptr %3, align 8
  store ptr %1, ptr %4, align 8
  call void @llvm.lifetime.start.p0(i64 8, ptr %5) #8
  call void @llvm.lifetime.start.p0(i64 8, ptr %6) #8
  %7 = load ptr, ptr %4, align 8
  %8 = call ptr @shm_toc_lookup(ptr noundef %7, i64 noundef -2305843009213693947, i1 noundef zeroext false)
  store ptr %8, ptr %5, align 8
  %9 = load i32, ptr @ParallelWorkerNumber, align 4
  %10 = mul i32 %9, 65536
  %11 = load ptr, ptr %5, align 8
  %12 = sext i32 %10 to i64
  %13 = getelementptr inbounds i8, ptr %11, i64 %12
  store ptr %13, ptr %5, align 8
  %14 = load ptr, ptr %5, align 8
  store ptr %14, ptr %6, align 8
  %15 = load ptr, ptr %6, align 8
  %16 = load ptr, ptr @MyProc, align 8
  call void @shm_mq_set_sender(ptr noundef %15, ptr noundef %16)
  %17 = load ptr, ptr %6, align 8
  %18 = load ptr, ptr %3, align 8
  %19 = call ptr @shm_mq_attach(ptr noundef %17, ptr noundef %18, ptr noundef null)
  %20 = call ptr @CreateTupleQueueDestReceiver(ptr noundef %19)
  call void @llvm.lifetime.end.p0(i64 8, ptr %6) #8
  call void @llvm.lifetime.end.p0(i64 8, ptr %5) #8
  ret ptr %20
}

; Function Attrs: nounwind uwtable
define dso_local void @ParallelQueryMain(ptr noundef %0, ptr noundef %1) #0 {
  %3 = alloca ptr, align 8
  %4 = alloca ptr, align 8
  %5 = alloca ptr, align 8
  %6 = alloca ptr, align 8
  %7 = alloca ptr, align 8
  %8 = alloca ptr, align 8
  %9 = alloca ptr, align 8
  %10 = alloca ptr, align 8
  %11 = alloca ptr, align 8
  %12 = alloca i32, align 4
  %13 = alloca ptr, align 8
  %14 = alloca ptr, align 8
  %15 = alloca %struct.ParallelWorkerContext, align 8
  %16 = alloca ptr, align 8
  store ptr %0, ptr %3, align 8
  store ptr %1, ptr %4, align 8
  call void @llvm.lifetime.start.p0(i64 8, ptr %5) #8
  call void @llvm.lifetime.start.p0(i64 8, ptr %6) #8
  call void @llvm.lifetime.start.p0(i64 8, ptr %7) #8
  call void @llvm.lifetime.start.p0(i64 8, ptr %8) #8
  call void @llvm.lifetime.start.p0(i64 8, ptr %9) #8
  call void @llvm.lifetime.start.p0(i64 8, ptr %10) #8
  call void @llvm.lifetime.start.p0(i64 8, ptr %11) #8
  call void @llvm.lifetime.start.p0(i64 4, ptr %12) #8
  store i32 0, ptr %12, align 4
  call void @llvm.lifetime.start.p0(i64 8, ptr %13) #8
  call void @llvm.lifetime.start.p0(i64 8, ptr %14) #8
  call void @llvm.lifetime.start.p0(i64 16, ptr %15) #8
  %17 = load ptr, ptr %4, align 8
  %18 = call ptr @shm_toc_lookup(ptr noundef %17, i64 noundef -2305843009213693951, i1 noundef zeroext false)
  store ptr %18, ptr %5, align 8
  %19 = load ptr, ptr %3, align 8
  %20 = load ptr, ptr %4, align 8
  %21 = call ptr @ExecParallelGetReceiver(ptr noundef %19, ptr noundef %20)
  store ptr %21, ptr %8, align 8
  %22 = load ptr, ptr %4, align 8
  %23 = call ptr @shm_toc_lookup(ptr noundef %22, i64 noundef -2305843009213693946, i1 noundef zeroext true)
  store ptr %23, ptr %10, align 8
  %24 = load ptr, ptr %10, align 8
  %25 = icmp ne ptr %24, null
  br i1 %25, label %26, label %30

26:                                               ; preds = %2
  %27 = load ptr, ptr %10, align 8
  %28 = getelementptr inbounds nuw %struct.SharedExecutorInstrumentation, ptr %27, i32 0, i32 0
  %29 = load i32, ptr %28, align 4
  store i32 %29, ptr %12, align 4
  br label %30

30:                                               ; preds = %26, %2
  %31 = load ptr, ptr %4, align 8
  %32 = call ptr @shm_toc_lookup(ptr noundef %31, i64 noundef -2305843009213693943, i1 noundef zeroext true)
  store ptr %32, ptr %11, align 8
  %33 = load ptr, ptr %4, align 8
  %34 = load ptr, ptr %8, align 8
  %35 = load i32, ptr %12, align 4
  %36 = call ptr @ExecParallelGetQueryDesc(ptr noundef %33, ptr noundef %34, i32 noundef %35)
  store ptr %36, ptr %9, align 8
  %37 = load ptr, ptr %9, align 8
  %38 = getelementptr inbounds nuw %struct.QueryDesc, ptr %37, i32 0, i32 2
  %39 = load ptr, ptr %38, align 8
  store ptr %39, ptr @debug_query_string, align 8
  %40 = load ptr, ptr @debug_query_string, align 8
  call void @pgstat_report_activity(i32 noundef 2, ptr noundef %40)
  %41 = load ptr, ptr %4, align 8
  %42 = call ptr @shm_toc_lookup(ptr noundef %41, i64 noundef -2305843009213693945, i1 noundef zeroext false)
  store ptr %42, ptr %13, align 8
  %43 = load ptr, ptr %13, align 8
  %44 = load ptr, ptr %3, align 8
  %45 = call ptr @dsa_attach_in_place(ptr noundef %43, ptr noundef %44)
  store ptr %45, ptr %14, align 8
  %46 = load ptr, ptr %5, align 8
  %47 = getelementptr inbounds nuw %struct.FixedParallelExecutorState, ptr %46, i32 0, i32 3
  %48 = load i32, ptr %47, align 4
  %49 = load ptr, ptr %9, align 8
  %50 = getelementptr inbounds nuw %struct.QueryDesc, ptr %49, i32 0, i32 1
  %51 = load ptr, ptr %50, align 8
  %52 = getelementptr inbounds nuw %struct.PlannedStmt, ptr %51, i32 0, i32 9
  store i32 %48, ptr %52, align 8
  %53 = load ptr, ptr %9, align 8
  %54 = load ptr, ptr %5, align 8
  %55 = getelementptr inbounds nuw %struct.FixedParallelExecutorState, ptr %54, i32 0, i32 2
  %56 = load i32, ptr %55, align 8
  call void @ExecutorStart(ptr noundef %53, i32 noundef %56)
  %57 = load ptr, ptr %14, align 8
  %58 = load ptr, ptr %9, align 8
  %59 = getelementptr inbounds nuw %struct.QueryDesc, ptr %58, i32 0, i32 11
  %60 = load ptr, ptr %59, align 8
  %61 = getelementptr inbounds nuw %struct.PlanState, ptr %60, i32 0, i32 2
  %62 = load ptr, ptr %61, align 8
  %63 = getelementptr inbounds nuw %struct.EState, ptr %62, i32 0, i32 40
  store ptr %57, ptr %63, align 8
  %64 = load ptr, ptr %5, align 8
  %65 = getelementptr inbounds nuw %struct.FixedParallelExecutorState, ptr %64, i32 0, i32 1
  %66 = load i64, ptr %65, align 8
  %67 = icmp ne i64 %66, 0
  br i1 %67, label %68, label %78

68:                                               ; preds = %30
  call void @llvm.lifetime.start.p0(i64 8, ptr %16) #8
  %69 = load ptr, ptr %14, align 8
  %70 = load ptr, ptr %5, align 8
  %71 = getelementptr inbounds nuw %struct.FixedParallelExecutorState, ptr %70, i32 0, i32 1
  %72 = load i64, ptr %71, align 8
  %73 = call ptr @dsa_get_address(ptr noundef %69, i64 noundef %72)
  store ptr %73, ptr %16, align 8
  %74 = load ptr, ptr %16, align 8
  %75 = load ptr, ptr %9, align 8
  %76 = getelementptr inbounds nuw %struct.QueryDesc, ptr %75, i32 0, i32 10
  %77 = load ptr, ptr %76, align 8
  call void @RestoreParamExecParams(ptr noundef %74, ptr noundef %77)
  call void @llvm.lifetime.end.p0(i64 8, ptr %16) #8
  br label %78

78:                                               ; preds = %68, %30
  %79 = load ptr, ptr %4, align 8
  %80 = getelementptr inbounds nuw %struct.ParallelWorkerContext, ptr %15, i32 0, i32 1
  store ptr %79, ptr %80, align 8
  %81 = load ptr, ptr %3, align 8
  %82 = getelementptr inbounds nuw %struct.ParallelWorkerContext, ptr %15, i32 0, i32 0
  store ptr %81, ptr %82, align 8
  %83 = load ptr, ptr %9, align 8
  %84 = getelementptr inbounds nuw %struct.QueryDesc, ptr %83, i32 0, i32 11
  %85 = load ptr, ptr %84, align 8
  %86 = call zeroext i1 @ExecParallelInitializeWorker(ptr noundef %85, ptr noundef %15)
  %87 = load ptr, ptr %5, align 8
  %88 = getelementptr inbounds nuw %struct.FixedParallelExecutorState, ptr %87, i32 0, i32 0
  %89 = load i64, ptr %88, align 8
  %90 = load ptr, ptr %9, align 8
  %91 = getelementptr inbounds nuw %struct.QueryDesc, ptr %90, i32 0, i32 11
  %92 = load ptr, ptr %91, align 8
  call void @ExecSetTupleBound(i64 noundef %89, ptr noundef %92)
  call void @InstrStartParallelQuery()
  %93 = load ptr, ptr %9, align 8
  %94 = load ptr, ptr %5, align 8
  %95 = getelementptr inbounds nuw %struct.FixedParallelExecutorState, ptr %94, i32 0, i32 0
  %96 = load i64, ptr %95, align 8
  %97 = icmp slt i64 %96, 0
  br i1 %97, label %98, label %99

98:                                               ; preds = %78
  br label %103

99:                                               ; preds = %78
  %100 = load ptr, ptr %5, align 8
  %101 = getelementptr inbounds nuw %struct.FixedParallelExecutorState, ptr %100, i32 0, i32 0
  %102 = load i64, ptr %101, align 8
  br label %103

103:                                              ; preds = %99, %98
  %104 = phi i64 [ 0, %98 ], [ %102, %99 ]
  call void @ExecutorRun(ptr noundef %93, i32 noundef 1, i64 noundef %104)
  %105 = load ptr, ptr %9, align 8
  call void @ExecutorFinish(ptr noundef %105)
  %106 = load ptr, ptr %4, align 8
  %107 = call ptr @shm_toc_lookup(ptr noundef %106, i64 noundef -2305843009213693948, i1 noundef zeroext false)
  store ptr %107, ptr %6, align 8
  %108 = load ptr, ptr %4, align 8
  %109 = call ptr @shm_toc_lookup(ptr noundef %108, i64 noundef -2305843009213693942, i1 noundef zeroext false)
  store ptr %109, ptr %7, align 8
  %110 = load ptr, ptr %6, align 8
  %111 = load i32, ptr @ParallelWorkerNumber, align 4
  %112 = sext i32 %111 to i64
  %113 = getelementptr inbounds %struct.BufferUsage, ptr %110, i64 %112
  %114 = load ptr, ptr %7, align 8
  %115 = load i32, ptr @ParallelWorkerNumber, align 4
  %116 = sext i32 %115 to i64
  %117 = getelementptr inbounds %struct.WalUsage, ptr %114, i64 %116
  call void @InstrEndParallelQuery(ptr noundef %113, ptr noundef %117)
  %118 = load ptr, ptr %10, align 8
  %119 = icmp ne ptr %118, null
  br i1 %119, label %120, label %126

120:                                              ; preds = %103
  %121 = load ptr, ptr %9, align 8
  %122 = getelementptr inbounds nuw %struct.QueryDesc, ptr %121, i32 0, i32 11
  %123 = load ptr, ptr %122, align 8
  %124 = load ptr, ptr %10, align 8
  %125 = call zeroext i1 @ExecParallelReportInstrumentation(ptr noundef %123, ptr noundef %124)
  br label %126

126:                                              ; preds = %120, %103
  %127 = load ptr, ptr %9, align 8
  %128 = getelementptr inbounds nuw %struct.QueryDesc, ptr %127, i32 0, i32 10
  %129 = load ptr, ptr %128, align 8
  %130 = getelementptr inbounds nuw %struct.EState, ptr %129, i32 0, i32 42
  %131 = load ptr, ptr %130, align 8
  %132 = icmp ne ptr %131, null
  br i1 %132, label %133, label %148

133:                                              ; preds = %126
  %134 = load ptr, ptr %11, align 8
  %135 = icmp ne ptr %134, null
  br i1 %135, label %136, label %148

136:                                              ; preds = %133
  %137 = load ptr, ptr %11, align 8
  %138 = getelementptr inbounds nuw %struct.SharedJitInstrumentation, ptr %137, i32 0, i32 1
  %139 = load i32, ptr @ParallelWorkerNumber, align 4
  %140 = sext i32 %139 to i64
  %141 = getelementptr inbounds [0 x %struct.JitInstrumentation], ptr %138, i64 0, i64 %140
  %142 = load ptr, ptr %9, align 8
  %143 = getelementptr inbounds nuw %struct.QueryDesc, ptr %142, i32 0, i32 10
  %144 = load ptr, ptr %143, align 8
  %145 = getelementptr inbounds nuw %struct.EState, ptr %144, i32 0, i32 42
  %146 = load ptr, ptr %145, align 8
  %147 = getelementptr inbounds nuw %struct.JitContext, ptr %146, i32 0, i32 1
  call void @llvm.memcpy.p0.p0.i64(ptr align 8 %141, ptr align 8 %147, i64 48, i1 false)
  br label %148

148:                                              ; preds = %136, %133, %126
  %149 = load ptr, ptr %9, align 8
  call void @ExecutorEnd(ptr noundef %149)
  %150 = load ptr, ptr %14, align 8
  call void @dsa_detach(ptr noundef %150)
  %151 = load ptr, ptr %9, align 8
  call void @FreeQueryDesc(ptr noundef %151)
  %152 = load ptr, ptr %8, align 8
  %153 = getelementptr inbounds nuw %struct._DestReceiver, ptr %152, i32 0, i32 3
  %154 = load ptr, ptr %153, align 8
  %155 = load ptr, ptr %8, align 8
  call void %154(ptr noundef %155)
  call void @llvm.lifetime.end.p0(i64 16, ptr %15) #8
  call void @llvm.lifetime.end.p0(i64 8, ptr %14) #8
  call void @llvm.lifetime.end.p0(i64 8, ptr %13) #8
  call void @llvm.lifetime.end.p0(i64 4, ptr %12) #8
  call void @llvm.lifetime.end.p0(i64 8, ptr %11) #8
  call void @llvm.lifetime.end.p0(i64 8, ptr %10) #8
  call void @llvm.lifetime.end.p0(i64 8, ptr %9) #8
  call void @llvm.lifetime.end.p0(i64 8, ptr %8) #8
  call void @llvm.lifetime.end.p0(i64 8, ptr %7) #8
  call void @llvm.lifetime.end.p0(i64 8, ptr %6) #8
  call void @llvm.lifetime.end.p0(i64 8, ptr %5) #8
  ret void
}