; Function Attrs: nounwind uwtable
define dso_local void @ParallelQueryMain(ptr noundef %0, ptr noundef %1) local_unnamed_addr #0 {
  %3 = alloca ptr, align 8
  %4 = alloca ptr, align 8
  %5 = alloca %struct.ParallelWorkerContext, align 8
  call void @llvm.lifetime.start.p0(i64 16, ptr nonnull %5) #9
  %6 = tail call ptr @shm_toc_lookup(ptr noundef %1, i64 noundef -2305843009213693951, i1 noundef zeroext false) #9
  %7 = tail call ptr @shm_toc_lookup(ptr noundef %1, i64 noundef -2305843009213693947, i1 noundef zeroext false) #9
  %8 = load i32, ptr @ParallelWorkerNumber, align 4
  %9 = shl i32 %8, 16
  %10 = sext i32 %9 to i64
  %11 = getelementptr inbounds i8, ptr %7, i64 %10
  %12 = load ptr, ptr @MyProc, align 8
  tail call void @shm_mq_set_sender(ptr noundef %11, ptr noundef %12) #9
  %13 = tail call ptr @shm_mq_attach(ptr noundef %11, ptr noundef %0, ptr noundef null) #9
  %14 = tail call ptr @CreateTupleQueueDestReceiver(ptr noundef %13) #9
  %15 = tail call ptr @shm_toc_lookup(ptr noundef %1, i64 noundef -2305843009213693946, i1 noundef zeroext true) #9
  %.not = icmp eq ptr %15, null
  br i1 %.not, label %18, label %16

16:                                               ; preds = %2
  %17 = load i32, ptr %15, align 4
  br label %18

18:                                               ; preds = %16, %2
  %.0 = phi i32 [ %17, %16 ], [ 0, %2 ]
  %19 = tail call ptr @shm_toc_lookup(ptr noundef %1, i64 noundef -2305843009213693943, i1 noundef zeroext true) #9
  call void @llvm.lifetime.start.p0(i64 8, ptr nonnull %4) #9
  %20 = tail call ptr @shm_toc_lookup(ptr noundef %1, i64 noundef -2305843009213693944, i1 noundef zeroext false) #9
  %21 = tail call ptr @shm_toc_lookup(ptr noundef %1, i64 noundef -2305843009213693950, i1 noundef zeroext false) #9
  %22 = tail call ptr @stringToNode(ptr noundef %21) #9
  %23 = tail call ptr @shm_toc_lookup(ptr noundef %1, i64 noundef -2305843009213693949, i1 noundef zeroext false) #9
  store ptr %23, ptr %4, align 8
  %24 = call ptr @RestoreParamList(ptr noundef nonnull %4) #9
  %25 = call ptr @GetActiveSnapshot() #9
  %26 = call ptr @CreateQueryDesc(ptr noundef %22, ptr noundef %20, ptr noundef %25, ptr noundef null, ptr noundef %14, ptr noundef %24, ptr noundef null, i32 noundef %.0) #9
  call void @llvm.lifetime.end.p0(i64 8, ptr nonnull %4) #9
  %27 = getelementptr inbounds nuw i8, ptr %26, i64 16
  %28 = load ptr, ptr %27, align 8
  store ptr %28, ptr @debug_query_string, align 8
  call void @pgstat_report_activity(i32 noundef 2, ptr noundef %28) #9
  %29 = call ptr @shm_toc_lookup(ptr noundef %1, i64 noundef -2305843009213693945, i1 noundef zeroext false) #9
  %30 = call ptr @dsa_attach_in_place(ptr noundef %29, ptr noundef %0) #9
  %31 = getelementptr inbounds nuw i8, ptr %6, i64 20
  %32 = load i32, ptr %31, align 4
  %33 = getelementptr inbounds nuw i8, ptr %26, i64 8
  %34 = load ptr, ptr %33, align 8
  %35 = getelementptr inbounds nuw i8, ptr %34, i64 24
  store i32 %32, ptr %35, align 8
  %36 = getelementptr inbounds nuw i8, ptr %6, i64 16
  %37 = load i32, ptr %36, align 8
  call void @ExecutorStart(ptr noundef %26, i32 noundef %37) #9
  %38 = getelementptr inbounds nuw i8, ptr %26, i64 88
  %39 = load ptr, ptr %38, align 8
  %40 = getelementptr inbounds nuw i8, ptr %39, i64 16
  %41 = load ptr, ptr %40, align 8
  %42 = getelementptr inbounds nuw i8, ptr %41, i64 296
  store ptr %30, ptr %42, align 8
  %43 = getelementptr inbounds nuw i8, ptr %6, i64 8
  %44 = load i64, ptr %43, align 8
  %.not55 = icmp eq i64 %44, 0
  br i1 %.not55, label %62, label %45

45:                                               ; preds = %18
  %46 = call ptr @dsa_get_address(ptr noundef %30, i64 noundef %44) #9
  %47 = getelementptr inbounds nuw i8, ptr %26, i64 80
  %48 = load ptr, ptr %47, align 8
  call void @llvm.lifetime.start.p0(i64 8, ptr nonnull %3)
  %.0.copyload5.i = load i32, ptr %46, align 1
  %49 = getelementptr inbounds nuw i8, ptr %46, i64 4
  store ptr %49, ptr %3, align 8
  %50 = icmp sgt i32 %.0.copyload5.i, 0
  br i1 %50, label %.lr.ph.i, label %RestoreParamExecParams.exit

.lr.ph.i:                                         ; preds = %45
  %51 = getelementptr inbounds nuw i8, ptr %48, i64 176
  br label %52

52:                                               ; preds = %52, %.lr.ph.i
  %.08.i = phi i32 [ 0, %.lr.ph.i ], [ %61, %52 ]
  %53 = load ptr, ptr %3, align 8
  %.0.copyload.i = load i32, ptr %53, align 1
  %54 = getelementptr inbounds nuw i8, ptr %53, i64 4
  store ptr %54, ptr %3, align 8
  %55 = load ptr, ptr %51, align 8
  %56 = sext i32 %.0.copyload.i to i64
  %57 = getelementptr inbounds %struct.ParamExecData, ptr %55, i64 %56
  %58 = getelementptr inbounds nuw i8, ptr %57, i64 16
  %59 = call i64 @datumRestore(ptr noundef nonnull %3, ptr noundef nonnull %58) #9
  %60 = getelementptr inbounds nuw i8, ptr %57, i64 8
  store i64 %59, ptr %60, align 8
  store ptr null, ptr %57, align 8
  %61 = add nuw nsw i32 %.08.i, 1
  %exitcond.not.i = icmp eq i32 %61, %.0.copyload5.i
  br i1 %exitcond.not.i, label %RestoreParamExecParams.exit, label %52, !llvm.loop !18

RestoreParamExecParams.exit:                      ; preds = %52, %45
  call void @llvm.lifetime.end.p0(i64 8, ptr nonnull %3)
  br label %62

62:                                               ; preds = %RestoreParamExecParams.exit, %18
  %63 = getelementptr inbounds nuw i8, ptr %5, i64 8
  store ptr %1, ptr %63, align 8
  store ptr %0, ptr %5, align 8
  %64 = load ptr, ptr %38, align 8
  %65 = call zeroext i1 @ExecParallelInitializeWorker(ptr noundef %64, ptr noundef nonnull %5)
  %66 = load i64, ptr %6, align 8
  %67 = load ptr, ptr %38, align 8
  call void @ExecSetTupleBound(i64 noundef %66, ptr noundef %67) #9
  call void @InstrStartParallelQuery() #9
  %68 = load i64, ptr %6, align 8
  %spec.select = call i64 @llvm.smax.i64(i64 %68, i64 0)
  call void @ExecutorRun(ptr noundef %26, i32 noundef 1, i64 noundef %spec.select) #9
  call void @ExecutorFinish(ptr noundef %26) #9
  %69 = call ptr @shm_toc_lookup(ptr noundef %1, i64 noundef -2305843009213693948, i1 noundef zeroext false) #9
  %70 = call ptr @shm_toc_lookup(ptr noundef %1, i64 noundef -2305843009213693942, i1 noundef zeroext false) #9
  %71 = load i32, ptr @ParallelWorkerNumber, align 4
  %72 = sext i32 %71 to i64
  %73 = getelementptr inbounds %struct.BufferUsage, ptr %69, i64 %72
  %74 = getelementptr inbounds %struct.WalUsage, ptr %70, i64 %72
  call void @InstrEndParallelQuery(ptr noundef %73, ptr noundef %74) #9
  br i1 %.not, label %78, label %75

75:                                               ; preds = %62
  %76 = load ptr, ptr %38, align 8
  %77 = call zeroext i1 @ExecParallelReportInstrumentation(ptr noundef %76, ptr noundef nonnull %15)
  br label %78

78:                                               ; preds = %75, %62
  %79 = getelementptr inbounds nuw i8, ptr %26, i64 80
  %80 = load ptr, ptr %79, align 8
  %81 = getelementptr inbounds nuw i8, ptr %80, i64 312
  %82 = load ptr, ptr %81, align 8
  %83 = icmp ne ptr %82, null
  %84 = icmp ne ptr %19, null
  %or.cond = select i1 %83, i1 %84, i1 false
  br i1 %or.cond, label %85, label %91

85:                                               ; preds = %78
  %86 = getelementptr inbounds nuw i8, ptr %19, i64 8
  %87 = load i32, ptr @ParallelWorkerNumber, align 4
  %88 = sext i32 %87 to i64
  %89 = getelementptr inbounds [0 x %struct.JitInstrumentation], ptr %86, i64 0, i64 %88
  %90 = getelementptr inbounds nuw i8, ptr %82, i64 8
  call void @llvm.memcpy.p0.p0.i64(ptr noundef nonnull align 8 dereferenceable(48) %89, ptr noundef nonnull align 8 dereferenceable(48) %90, i64 48, i1 false)
  br label %91

91:                                               ; preds = %85, %78
  call void @ExecutorEnd(ptr noundef nonnull %26) #9
  call void @dsa_detach(ptr noundef %30) #9
  call void @FreeQueryDesc(ptr noundef nonnull %26) #9
  %92 = getelementptr inbounds nuw i8, ptr %14, i64 24
  %93 = load ptr, ptr %92, align 8
  call void %93(ptr noundef %14) #9
  call void @llvm.lifetime.end.p0(i64 16, ptr nonnull %5) #9
  ret void
}